; Function Attrs: nounwind uwtable
define internal ptr @_weakref_getweakrefcount(ptr readnone captures(none) %0, ptr noundef %1) #0 {
  %3 = tail call i64 @_PyWeakref_GetWeakrefCount(ptr noundef %1) #3
  %4 = icmp eq i64 %3, -1
  br i1 %4, label %5, label %7

5:                                                ; preds = %2
  %6 = tail call ptr @PyErr_Occurred() #3
  %.not = icmp eq ptr %6, null
  br i1 %.not, label %7, label %9

7:                                                ; preds = %5, %2
  %8 = tail call ptr @PyLong_FromSsize_t(i64 noundef %3) #3
  br label %9

9:                                                ; preds = %5, %7
  %.0 = phi ptr [ null, %5 ], [ %8, %7 ]
  ret ptr %.0
}